target datalayout = "e-m:e-p270:32:32-p271:32:32-p272:64:64-i64:64-i128:128-f80:128-n8:16:32:64-S128"
target triple = "x86_64-pc-linux-gnu"

%struct.yyjson_alc = type { ptr, ptr, ptr, ptr }
%struct.dyn_ctx = type { %struct.dyn_chunk, %struct.dyn_chunk }
%struct.dyn_chunk = type { i64, ptr }

@__const.dyn_malloc.def = private unnamed_addr constant %struct.yyjson_alc { ptr @default_malloc, ptr @default_realloc, ptr @default_free, ptr null }, align 8

; Function Attrs: alwaysinline nounwind uwtable
define internal zeroext i1 @size_is_pow2(i64 noundef %0) #4 {
  %2 = alloca i64, align 8
  store i64 %0, ptr %2, align 8, !tbaa !10
  %3 = load i64, ptr %2, align 8, !tbaa !10
  %4 = load i64, ptr %2, align 8, !tbaa !10
  %5 = sub i64 %4, 1
  %6 = and i64 %3, %5
  %7 = icmp eq i64 %6, 0
  ret i1 %7
}

; Function Attrs: alwaysinline nounwind uwtable
define internal i64 @size_align_up(i64 noundef %0, i64 noundef %1) #4 {
  %3 = alloca i64, align 8
  %4 = alloca i64, align 8
  %5 = alloca i64, align 8
  store i64 %0, ptr %4, align 8, !tbaa !10
  store i64 %1, ptr %5, align 8, !tbaa !10
  %6 = load i64, ptr %5, align 8, !tbaa !10
  %7 = call zeroext i1 @size_is_pow2(i64 noundef %6)
  br i1 %7, label %8, label %17

8:                                                ; preds = %2
  %9 = load i64, ptr %4, align 8, !tbaa !10
  %10 = load i64, ptr %5, align 8, !tbaa !10
  %11 = sub i64 %10, 1
  %12 = add i64 %9, %11
  %13 = load i64, ptr %5, align 8, !tbaa !10
  %14 = sub i64 %13, 1
  %15 = xor i64 %14, -1
  %16 = and i64 %12, %15
  store i64 %16, ptr %3, align 8
  br label %29

17:                                               ; preds = %2
  %18 = load i64, ptr %4, align 8, !tbaa !10
  %19 = load i64, ptr %5, align 8, !tbaa !10
  %20 = add i64 %18, %19
  %21 = load i64, ptr %4, align 8, !tbaa !10
  %22 = load i64, ptr %5, align 8, !tbaa !10
  %23 = add i64 %21, %22
  %24 = sub i64 %23, 1
  %25 = load i64, ptr %5, align 8, !tbaa !10
  %26 = urem i64 %24, %25
  %27 = sub i64 %20, %26
  %28 = sub i64 %27, 1
  store i64 %28, ptr %3, align 8
  br label %29

29:                                               ; preds = %17, %8
  %30 = load i64, ptr %3, align 8
  ret i64 %30
}

; Function Attrs: alwaysinline nounwind uwtable
define internal void @dyn_chunk_list_add(ptr noundef %0, ptr noundef %1) #4 {
  %3 = alloca ptr, align 8
  %4 = alloca ptr, align 8
  store ptr %0, ptr %3, align 8, !tbaa !36
  store ptr %1, ptr %4, align 8, !tbaa !36
  %5 = load ptr, ptr %3, align 8, !tbaa !36
  %6 = getelementptr inbounds nuw %struct.dyn_chunk, ptr %5, i32 0, i32 1
  %7 = load ptr, ptr %6, align 8, !tbaa !38
  %8 = load ptr, ptr %4, align 8, !tbaa !36
  %9 = getelementptr inbounds nuw %struct.dyn_chunk, ptr %8, i32 0, i32 1
  store ptr %7, ptr %9, align 8, !tbaa !38
  %10 = load ptr, ptr %4, align 8, !tbaa !36
  %11 = load ptr, ptr %3, align 8, !tbaa !36
  %12 = getelementptr inbounds nuw %struct.dyn_chunk, ptr %11, i32 0, i32 1
  store ptr %10, ptr %12, align 8, !tbaa !38
  ret void
}

; Function Attrs: alwaysinline nounwind uwtable
define internal zeroext i1 @dyn_size_align(ptr noundef %0) #4 {
  %2 = alloca i1, align 1
  %3 = alloca ptr, align 8
  %4 = alloca i64, align 8
  %5 = alloca i32, align 4
  store ptr %0, ptr %3, align 8, !tbaa !107
  call void @llvm.lifetime.start.p0(i64 8, ptr %4) #13
  %6 = load ptr, ptr %3, align 8, !tbaa !107
  %7 = load i64, ptr %6, align 8, !tbaa !10
  %8 = add i64 %7, 16
  store i64 %8, ptr %4, align 8, !tbaa !10
  %9 = load i64, ptr %4, align 8, !tbaa !10
  %10 = call i64 @size_align_up(i64 noundef %9, i64 noundef 4096)
  store i64 %10, ptr %4, align 8, !tbaa !10
  %11 = load i64, ptr %4, align 8, !tbaa !10
  %12 = load ptr, ptr %3, align 8, !tbaa !107
  %13 = load i64, ptr %12, align 8, !tbaa !10
  %14 = icmp ult i64 %11, %13
  %15 = xor i1 %14, true
  %16 = xor i1 %15, true
  %17 = zext i1 %16 to i32
  %18 = sext i32 %17 to i64
  %19 = call i64 @llvm.expect.i64(i64 %18, i64 0)
  %20 = icmp ne i64 %19, 0
  br i1 %20, label %21, label %22

21:                                               ; preds = %1
  store i1 false, ptr %2, align 1
  store i32 1, ptr %5, align 4
  br label %25

22:                                               ; preds = %1
  %23 = load i64, ptr %4, align 8, !tbaa !10
  %24 = load ptr, ptr %3, align 8, !tbaa !107
  store i64 %23, ptr %24, align 8, !tbaa !10
  store i1 true, ptr %2, align 1
  store i32 1, ptr %5, align 4
  br label %25

25:                                               ; preds = %22, %21
  call void @llvm.lifetime.end.p0(i64 8, ptr %4) #13
  %26 = load i1, ptr %2, align 1
  ret i1 %26
}

; Function Attrs: nounwind uwtable
define internal ptr @dyn_malloc(ptr noundef %0, i64 noundef %1) #0 {
  %3 = alloca ptr, align 8
  %4 = alloca ptr, align 8
  %5 = alloca i64, align 8
  %6 = alloca %struct.yyjson_alc, align 8
  %7 = alloca ptr, align 8
  %8 = alloca ptr, align 8
  %9 = alloca ptr, align 8
  %10 = alloca i32, align 4
  store ptr %0, ptr %4, align 8, !tbaa !9
  store i64 %1, ptr %5, align 8, !tbaa !10
  call void @llvm.lifetime.start.p0(i64 32, ptr %6) #13
  call void @llvm.memcpy.p0.p0.i64(ptr align 8 %6, ptr align 8 @__const.dyn_malloc.def, i64 32, i1 false)
  call void @llvm.lifetime.start.p0(i64 8, ptr %7) #13
  %11 = load ptr, ptr %4, align 8, !tbaa !9
  store ptr %11, ptr %7, align 8, !tbaa !9
  call void @llvm.lifetime.start.p0(i64 8, ptr %8) #13
  call void @llvm.lifetime.start.p0(i64 8, ptr %9) #13
  %12 = call zeroext i1 @dyn_size_align(ptr noundef %5)
  %13 = xor i1 %12, true
  %14 = xor i1 %13, true
  %15 = xor i1 %14, true
  %16 = zext i1 %15 to i32
  %17 = sext i32 %16 to i64
  %18 = call i64 @llvm.expect.i64(i64 %17, i64 0)
  %19 = icmp ne i64 %18, 0
  br i1 %19, label %20, label %21

20:                                               ; preds = %2
  store ptr null, ptr %3, align 8
  store i32 1, ptr %10, align 4
  br label %118

21:                                               ; preds = %2
  %22 = load ptr, ptr %7, align 8, !tbaa !9
  %23 = getelementptr inbounds nuw %struct.dyn_ctx, ptr %22, i32 0, i32 0
  %24 = getelementptr inbounds nuw %struct.dyn_chunk, ptr %23, i32 0, i32 1
  %25 = load ptr, ptr %24, align 8, !tbaa !32
  %26 = icmp ne ptr %25, null
  br i1 %26, label %55, label %27

27:                                               ; preds = %21
  %28 = getelementptr inbounds nuw %struct.yyjson_alc, ptr %6, i32 0, i32 0
  %29 = load ptr, ptr %28, align 8, !tbaa !23
  %30 = getelementptr inbounds nuw %struct.yyjson_alc, ptr %6, i32 0, i32 3
  %31 = load ptr, ptr %30, align 8, !tbaa !27
  %32 = load i64, ptr %5, align 8, !tbaa !10
  %33 = call ptr %29(ptr noundef %31, i64 noundef %32)
  store ptr %33, ptr %8, align 8, !tbaa !36
  %34 = load ptr, ptr %8, align 8, !tbaa !36
  %35 = icmp ne ptr %34, null
  %36 = xor i1 %35, true
  %37 = xor i1 %36, true
  %38 = xor i1 %37, true
  %39 = zext i1 %38 to i32
  %40 = sext i32 %39 to i64
  %41 = call i64 @llvm.expect.i64(i64 %40, i64 0)
  %42 = icmp ne i64 %41, 0
  br i1 %42, label %43, label %44

43:                                               ; preds = %27
  store ptr null, ptr %3, align 8
  store i32 1, ptr %10, align 4
  br label %118

44:                                               ; preds = %27
  %45 = load i64, ptr %5, align 8, !tbaa !10
  %46 = load ptr, ptr %8, align 8, !tbaa !36
  %47 = getelementptr inbounds nuw %struct.dyn_chunk, ptr %46, i32 0, i32 0
  store i64 %45, ptr %47, align 8, !tbaa !37
  %48 = load ptr, ptr %8, align 8, !tbaa !36
  %49 = getelementptr inbounds nuw %struct.dyn_chunk, ptr %48, i32 0, i32 1
  store ptr null, ptr %49, align 8, !tbaa !38
  %50 = load ptr, ptr %7, align 8, !tbaa !9
  %51 = getelementptr inbounds nuw %struct.dyn_ctx, ptr %50, i32 0, i32 1
  %52 = load ptr, ptr %8, align 8, !tbaa !36
  call void @dyn_chunk_list_add(ptr noundef %51, ptr noundef %52)
  %53 = load ptr, ptr %8, align 8, !tbaa !36
  %54 = getelementptr inbounds %struct.dyn_chunk, ptr %53, i64 1
  store ptr %54, ptr %3, align 8
  store i32 1, ptr %10, align 4
  br label %118

55:                                               ; preds = %21
  %56 = load ptr, ptr %7, align 8, !tbaa !9
  %57 = getelementptr inbounds nuw %struct.dyn_ctx, ptr %56, i32 0, i32 0
  store ptr %57, ptr %9, align 8, !tbaa !36
  br label %58

58:                                               ; preds = %116, %55
  br label %59

59:                                               ; preds = %58
  %60 = load ptr, ptr %9, align 8, !tbaa !36
  %61 = getelementptr inbounds nuw %struct.dyn_chunk, ptr %60, i32 0, i32 1
  %62 = load ptr, ptr %61, align 8, !tbaa !38
  store ptr %62, ptr %8, align 8, !tbaa !36
  %63 = load ptr, ptr %8, align 8, !tbaa !36
  %64 = getelementptr inbounds nuw %struct.dyn_chunk, ptr %63, i32 0, i32 0
  %65 = load i64, ptr %64, align 8, !tbaa !37
  %66 = load i64, ptr %5, align 8, !tbaa !10
  %67 = icmp uge i64 %65, %66
  br i1 %67, label %68, label %79

68:                                               ; preds = %59
  %69 = load ptr, ptr %8, align 8, !tbaa !36
  %70 = getelementptr inbounds nuw %struct.dyn_chunk, ptr %69, i32 0, i32 1
  %71 = load ptr, ptr %70, align 8, !tbaa !38
  %72 = load ptr, ptr %9, align 8, !tbaa !36
  %73 = getelementptr inbounds nuw %struct.dyn_chunk, ptr %72, i32 0, i32 1
  store ptr %71, ptr %73, align 8, !tbaa !38
  %74 = load ptr, ptr %7, align 8, !tbaa !9
  %75 = getelementptr inbounds nuw %struct.dyn_ctx, ptr %74, i32 0, i32 1
  %76 = load ptr, ptr %8, align 8, !tbaa !36
  call void @dyn_chunk_list_add(ptr noundef %75, ptr noundef %76)
  %77 = load ptr, ptr %8, align 8, !tbaa !36
  %78 = getelementptr inbounds %struct.dyn_chunk, ptr %77, i64 1
  store ptr %78, ptr %3, align 8
  store i32 1, ptr %10, align 4
  br label %118

79:                                               ; preds = %59
  %80 = load ptr, ptr %8, align 8, !tbaa !36
  %81 = getelementptr inbounds nuw %struct.dyn_chunk, ptr %80, i32 0, i32 1
  %82 = load ptr, ptr %81, align 8, !tbaa !38
  %83 = icmp ne ptr %82, null
  br i1 %83, label %116, label %84

84:                                               ; preds = %79
  %85 = getelementptr inbounds nuw %struct.yyjson_alc, ptr %6, i32 0, i32 1
  %86 = load ptr, ptr %85, align 8, !tbaa !25
  %87 = getelementptr inbounds nuw %struct.yyjson_alc, ptr %6, i32 0, i32 3
  %88 = load ptr, ptr %87, align 8, !tbaa !27
  %89 = load ptr, ptr %8, align 8, !tbaa !36
  %90 = load ptr, ptr %8, align 8, !tbaa !36
  %91 = getelementptr inbounds nuw %struct.dyn_chunk, ptr %90, i32 0, i32 0
  %92 = load i64, ptr %91, align 8, !tbaa !37
  %93 = load i64, ptr %5, align 8, !tbaa !10
  %94 = call ptr %86(ptr noundef %88, ptr noundef %89, i64 noundef %92, i64 noundef %93)
  store ptr %94, ptr %8, align 8, !tbaa !36
  %95 = load ptr, ptr %8, align 8, !tbaa !36
  %96 = icmp ne ptr %95, null
  %97 = xor i1 %96, true
  %98 = xor i1 %97, true
  %99 = xor i1 %98, true
  %100 = zext i1 %99 to i32
  %101 = sext i32 %100 to i64
  %102 = call i64 @llvm.expect.i64(i64 %101, i64 0)
  %103 = icmp ne i64 %102, 0
  br i1 %103, label %104, label %105

104:                                              ; preds = %84
  store ptr null, ptr %3, align 8
  store i32 1, ptr %10, align 4
  br label %118

105:                                              ; preds = %84
  %106 = load ptr, ptr %9, align 8, !tbaa !36
  %107 = getelementptr inbounds nuw %struct.dyn_chunk, ptr %106, i32 0, i32 1
  store ptr null, ptr %107, align 8, !tbaa !38
  %108 = load i64, ptr %5, align 8, !tbaa !10
  %109 = load ptr, ptr %8, align 8, !tbaa !36
  %110 = getelementptr inbounds nuw %struct.dyn_chunk, ptr %109, i32 0, i32 0
  store i64 %108, ptr %110, align 8, !tbaa !37
  %111 = load ptr, ptr %7, align 8, !tbaa !9
  %112 = getelementptr inbounds nuw %struct.dyn_ctx, ptr %111, i32 0, i32 1
  %113 = load ptr, ptr %8, align 8, !tbaa !36
  call void @dyn_chunk_list_add(ptr noundef %112, ptr noundef %113)
  %114 = load ptr, ptr %8, align 8, !tbaa !36
  %115 = getelementptr inbounds %struct.dyn_chunk, ptr %114, i64 1
  store ptr %115, ptr %3, align 8
  store i32 1, ptr %10, align 4
  br label %118

116:                                              ; preds = %79
  %117 = load ptr, ptr %8, align 8, !tbaa !36
  store ptr %117, ptr %9, align 8, !tbaa !36
  br label %58

118:                                              ; preds = %105, %104, %68, %44, %43, %20
  call void @llvm.lifetime.end.p0(i64 8, ptr %9) #13
  call void @llvm.lifetime.end.p0(i64 8, ptr %8) #13
  call void @llvm.lifetime.end.p0(i64 8, ptr %7) #13
  call void @llvm.lifetime.end.p0(i64 32, ptr %6) #13
  %119 = load ptr, ptr %3, align 8
  ret ptr %119
}